target datalayout = "e-m:e-p270:32:32-p271:32:32-p272:64:64-i64:64-f80:128-n8:16:32:64-S128"
target triple = "x86_64-pc-linux-gnu"

@.str = private unnamed_addr constant [5 x i8] c"%d%d\00", align 1
@.str.1 = private unnamed_addr constant [3 x i8] c"%d\00", align 1
@.str.2 = private unnamed_addr constant [4 x i8] c"%d \00", align 1
@.str.3 = private unnamed_addr constant [4 x i8] c"%d\0A\00", align 1

; Function Attrs: noinline nounwind uwtable
define dso_local i32 @main() #0 {
  %1 = alloca i32, align 4
  %2 = alloca i32, align 4
  %3 = alloca i32, align 4
  %4 = alloca [100 x i32], align 16
  %5 = alloca [100 x i32], align 16
  store i32 0, i32* %1, align 4
  %6 = call i32 (i8*, ...) @__isoc99_scanf(i8* getelementptr inbounds ([5 x i8], [5 x i8]* @.str, i64 0, i64 0), i32* %2, i32* %3)
  %7 = getelementptr inbounds [100 x i32], [100 x i32]* %4, i64 0, i64 0
  %8 = getelementptr inbounds [100 x i32], [100 x i32]* %5, i64 0, i64 0
  %9 = load i32, i32* %2, align 4
  %10 = load i32, i32* %3, align 4
  call void @read(i32* %7, i32* %8, i32 %9, i32 %10)
  %11 = getelementptr inbounds [100 x i32], [100 x i32]* %4, i64 0, i64 0
  %12 = load i32, i32* %2, align 4
  call void @bubble(i32* %11, i32 %12)
  %13 = getelementptr inbounds [100 x i32], [100 x i32]* %5, i64 0, i64 0
  %14 = load i32, i32* %3, align 4
  call void @bubble(i32* %13, i32 %14)
  %15 = getelementptr inbounds [100 x i32], [100 x i32]* %4, i64 0, i64 0
  %16 = getelementptr inbounds [100 x i32], [100 x i32]* %5, i64 0, i64 0
  %17 = load i32, i32* %2, align 4
  %18 = load i32, i32* %3, align 4
  call void @print(i32* %15, i32* %16, i32 %17, i32 %18)
  ret i32 0
}

; Function Attrs: noinline nounwind uwtable
define dso_local void @read(i32* %0, i32* %1, i32 %2, i32 %3) #0 {
  %5 = alloca i32*, align 8
  %6 = alloca i32*, align 8
  %7 = alloca i32, align 4
  %8 = alloca i32, align 4
  %9 = alloca i32, align 4
  store i32* %0, i32** %5, align 8
  store i32* %1, i32** %6, align 8
  store i32 %2, i32* %7, align 4
  store i32 %3, i32* %8, align 4
  store i32 0, i32* %9, align 4
  br label %10

10:                                               ; preds = %20, %4
  %11 = load i32, i32* %9, align 4
  %12 = load i32, i32* %7, align 4
  %13 = icmp slt i32 %11, %12
  br i1 %13, label %14, label %23

14:                                               ; preds = %10
  %15 = load i32*, i32** %5, align 8
  %16 = load i32, i32* %9, align 4
  %17 = sext i32 %16 to i64
  %18 = getelementptr inbounds i32, i32* %15, i64 %17
  %19 = call i32 (i8*, ...) @__isoc99_scanf(i8* getelementptr inbounds ([3 x i8], [3 x i8]* @.str.1, i64 0, i64 0), i32* %18)
  br label %20

20:                                               ; preds = %14
  %21 = load i32, i32* %9, align 4
  %22 = add nsw i32 %21, 1
  store i32 %22, i32* %9, align 4
  br label %10

23:                                               ; preds = %10
  store i32 0, i32* %9, align 4
  br label %24

24:                                               ; preds = %34, %23
  %25 = load i32, i32* %9, align 4
  %26 = load i32, i32* %8, align 4
  %27 = icmp slt i32 %25, %26
  br i1 %27, label %28, label %37

28:                                               ; preds = %24
  %29 = load i32*, i32** %6, align 8
  %30 = load i32, i32* %9, align 4
  %31 = sext i32 %30 to i64
  %32 = getelementptr inbounds i32, i32* %29, i64 %31
  %33 = call i32 (i8*, ...) @__isoc99_scanf(i8* getelementptr inbounds ([3 x i8], [3 x i8]* @.str.1, i64 0, i64 0), i32* %32)
  br label %34

34:                                               ; preds = %28
  %35 = load i32, i32* %9, align 4
  %36 = add nsw i32 %35, 1
  store i32 %36, i32* %9, align 4
  br label %24

37:                                               ; preds = %24
  ret void
}

; Function Attrs: noinline nounwind uwtable
define dso_local void @bubble(i32* %0, i32 %1) #0 {
  %3 = alloca i32*, align 8
  %4 = alloca i32, align 4
  %5 = alloca i32, align 4
  %6 = alloca i32, align 4
  %7 = alloca i32, align 4
  store i32* %0, i32** %3, align 8
  store i32 %1, i32* %4, align 4
  store i32 0, i32* %5, align 4
  br label %8

8:                                                ; preds = %58, %2
  %9 = load i32, i32* %5, align 4
  %10 = load i32, i32* %4, align 4
  %11 = icmp slt i32 %9, %10
  br i1 %11, label %12, label %61

12:                                               ; preds = %8
  store i32 0, i32* %6, align 4
  br label %13

13:                                               ; preds = %54, %12
  %14 = load i32, i32* %6, align 4
  %15 = load i32, i32* %4, align 4
  %16 = sub nsw i32 %15, 1
  %17 = icmp slt i32 %14, %16
  br i1 %17, label %18, label %57

18:                                               ; preds = %13
  %19 = load i32*, i32** %3, align 8
  %20 = load i32, i32* %6, align 4
  %21 = sext i32 %20 to i64
  %22 = getelementptr inbounds i32, i32* %19, i64 %21
  %23 = load i32, i32* %22, align 4
  %24 = load i32*, i32** %3, align 8
  %25 = load i32, i32* %6, align 4
  %26 = add nsw i32 %25, 1
  %27 = sext i32 %26 to i64
  %28 = getelementptr inbounds i32, i32* %24, i64 %27
  %29 = load i32, i32* %28, align 4
  %30 = icmp sgt i32 %23, %29
  br i1 %30, label %31, label %53

31:                                               ; preds = %18
  %32 = load i32*, i32** %3, align 8
  %33 = load i32, i32* %6, align 4
  %34 = sext i32 %33 to i64
  %35 = getelementptr inbounds i32, i32* %32, i64 %34
  %36 = load i32, i32* %35, align 4
  store i32 %36, i32* %7, align 4
  %37 = load i32*, i32** %3, align 8
  %38 = load i32, i32* %6, align 4
  %39 = add nsw i32 %38, 1
  %40 = sext i32 %39 to i64
  %41 = getelementptr inbounds i32, i32* %37, i64 %40
  %42 = load i32, i32* %41, align 4
  %43 = load i32*, i32** %3, align 8
  %44 = load i32, i32* %6, align 4
  %45 = sext i32 %44 to i64
  %46 = getelementptr inbounds i32, i32* %43, i64 %45
  store i32 %42, i32* %46, align 4
  %47 = load i32, i32* %7, align 4
  %48 = load i32*, i32** %3, align 8
  %49 = load i32, i32* %6, align 4
  %50 = add nsw i32 %49, 1
  %51 = sext i32 %50 to i64
  %52 = getelementptr inbounds i32, i32* %48, i64 %51
  store i32 %47, i32* %52, align 4
  br label %53

53:                                               ; preds = %31, %18
  br label %54

54:                                               ; preds = %53
  %55 = load i32, i32* %6, align 4
  %56 = add nsw i32 %55, 1
  store i32 %56, i32* %6, align 4
  br label %13

57:                                               ; preds = %13
  br label %58

58:                                               ; preds = %57
  %59 = load i32, i32* %5, align 4
  %60 = add nsw i32 %59, 1
  store i32 %60, i32* %5, align 4
  br label %8

61:                                               ; preds = %8
  ret void
}

; Function Attrs: noinline nounwind uwtable
define dso_local void @print(i32* %0, i32* %1, i32 %2, i32 %3) #0 {
  %5 = alloca i32*, align 8
  %6 = alloca i32*, align 8
  %7 = alloca i32, align 4
  %8 = alloca i32, align 4
  %9 = alloca i32, align 4
  store i32* %0, i32** %5, align 8
  store i32* %1, i32** %6, align 8
  store i32 %2, i32* %7, align 4
  store i32 %3, i32* %8, align 4
  store i32 0, i32* %9, align 4
  br label %10

10:                                               ; preds = %21, %4
  %11 = load i32, i32* %9, align 4
  %12 = load i32, i32* %7, align 4
  %13 = icmp slt i32 %11, %12
  br i1 %13, label %14, label %24

14:                                               ; preds = %10
  %15 = load i32*, i32** %5, align 8
  %16 = load i32, i32* %9, align 4
  %17 = sext i32 %16 to i64
  %18 = getelementptr inbounds i32, i32* %15, i64 %17
  %19 = load i32, i32* %18, align 4
  %20 = call i32 (i8*, ...) @printf(i8* getelementptr inbounds ([4 x i8], [4 x i8]* @.str.2, i64 0, i64 0), i32 %19)
  br label %21

21:                                               ; preds = %14
  %22 = load i32, i32* %9, align 4
  %23 = add nsw i32 %22, 1
  store i32 %23, i32* %9, align 4
  br label %10

24:                                               ; preds = %10
  store i32 0, i32* %9, align 4
  br label %25

25:                                               ; preds = %37, %24
  %26 = load i32, i32* %9, align 4
  %27 = load i32, i32* %8, align 4
  %28 = sub nsw i32 %27, 1
  %29 = icmp slt i32 %26, %28
  br i1 %29, label %30, label %40

30:                                               ; preds = %25
  %31 = load i32*, i32** %6, align 8
  %32 = load i32, i32* %9, align 4
  %33 = sext i32 %32 to i64
  %34 = getelementptr inbounds i32, i32* %31, i64 %33
  %35 = load i32, i32* %34, align 4
  %36 = call i32 (i8*, ...) @printf(i8* getelementptr inbounds ([4 x i8], [4 x i8]* @.str.2, i64 0, i64 0), i32 %35)
  br label %37

37:                                               ; preds = %30
  %38 = load i32, i32* %9, align 4
  %39 = add nsw i32 %38, 1
  store i32 %39, i32* %9, align 4
  br label %25

40:                                               ; preds = %25
  %41 = load i32*, i32** %6, align 8
  %42 = load i32, i32* %8, align 4
  %43 = sub nsw i32 %42, 1
  %44 = sext i32 %43 to i64
  %45 = getelementptr inbounds i32, i32* %41, i64 %44
  %46 = load i32, i32* %45, align 4
  %47 = call i32 (i8*, ...) @printf(i8* getelementptr inbounds ([4 x i8], [4 x i8]* @.str.3, i64 0, i64 0), i32 %46)
  ret void
}