; Function Attrs: nofree nounwind sspstrong uwtable
define dso_local i32 @main() local_unnamed_addr #0 {
  %1 = alloca i32, align 4
  %2 = alloca i32, align 4
  %3 = alloca [100 x i32], align 16
  %4 = alloca [100 x i32], align 16
  %5 = bitcast i32* %1 to i8*
  call void @llvm.lifetime.start.p0i8(i64 4, i8* nonnull %5) #4
  %6 = bitcast i32* %2 to i8*
  call void @llvm.lifetime.start.p0i8(i64 4, i8* nonnull %6) #4
  %7 = bitcast [100 x i32]* %3 to i8*
  call void @llvm.lifetime.start.p0i8(i64 400, i8* nonnull %7) #4
  %8 = bitcast [100 x i32]* %4 to i8*
  call void @llvm.lifetime.start.p0i8(i64 400, i8* nonnull %8) #4
  %9 = call i32 (i8*, ...) @__isoc99_scanf(i8* getelementptr inbounds ([5 x i8], [5 x i8]* @.str, i64 0, i64 0), i32* nonnull %1, i32* nonnull %2)
  %10 = getelementptr inbounds [100 x i32], [100 x i32]* %3, i64 0, i64 0
  %11 = getelementptr inbounds [100 x i32], [100 x i32]* %4, i64 0, i64 0
  %12 = load i32, i32* %1, align 4, !tbaa !5
  %13 = load i32, i32* %2, align 4, !tbaa !5
  %14 = icmp sgt i32 %12, 0
  br i1 %14, label %15, label %17

15:                                               ; preds = %0
  %16 = zext i32 %12 to i64
  br label %21

17:                                               ; preds = %21, %0
  %18 = icmp sgt i32 %13, 0
  br i1 %18, label %19, label %33

19:                                               ; preds = %17
  %20 = zext i32 %13 to i64
  br label %27

21:                                               ; preds = %21, %15
  %22 = phi i64 [ 0, %15 ], [ %25, %21 ]
  %23 = getelementptr inbounds [100 x i32], [100 x i32]* %3, i64 0, i64 %22
  %24 = call i32 (i8*, ...) @__isoc99_scanf(i8* getelementptr inbounds ([3 x i8], [3 x i8]* @.str.1, i64 0, i64 0), i32* nonnull %23) #4
  %25 = add nuw nsw i64 %22, 1
  %26 = icmp eq i64 %25, %16
  br i1 %26, label %17, label %21, !llvm.loop !9

27:                                               ; preds = %27, %19
  %28 = phi i64 [ 0, %19 ], [ %31, %27 ]
  %29 = getelementptr inbounds [100 x i32], [100 x i32]* %4, i64 0, i64 %28
  %30 = call i32 (i8*, ...) @__isoc99_scanf(i8* getelementptr inbounds ([3 x i8], [3 x i8]* @.str.1, i64 0, i64 0), i32* nonnull %29) #4
  %31 = add nuw nsw i64 %28, 1
  %32 = icmp eq i64 %31, %20
  br i1 %32, label %33, label %27, !llvm.loop !11

33:                                               ; preds = %27, %17
  %34 = load i32, i32* %1, align 4, !tbaa !5
  %35 = icmp slt i32 %34, 2
  br i1 %35, label %75, label %36

36:                                               ; preds = %33
  %37 = add nsw i32 %34, -1
  %38 = zext i32 %37 to i64
  %39 = and i64 %38, 1
  %40 = icmp eq i32 %37, 1
  %41 = and i64 %38, 4294967294
  %42 = icmp eq i64 %39, 0
  br label %43

43:                                               ; preds = %72, %36
  %44 = phi i32 [ %73, %72 ], [ 0, %36 ]
  %45 = load i32, i32* %10, align 16, !tbaa !5
  br i1 %40, label %62, label %46

46:                                               ; preds = %43, %147
  %47 = phi i32 [ %148, %147 ], [ %45, %43 ]
  %48 = phi i64 [ %58, %147 ], [ 0, %43 ]
  %49 = phi i64 [ %149, %147 ], [ %41, %43 ]
  %50 = or i64 %48, 1
  %51 = getelementptr inbounds [100 x i32], [100 x i32]* %3, i64 0, i64 %50
  %52 = load i32, i32* %51, align 4, !tbaa !5
  %53 = icmp sgt i32 %47, %52
  br i1 %53, label %54, label %56

54:                                               ; preds = %46
  %55 = getelementptr inbounds [100 x i32], [100 x i32]* %3, i64 0, i64 %48
  store i32 %52, i32* %55, align 8, !tbaa !5
  store i32 %47, i32* %51, align 4, !tbaa !5
  br label %56

56:                                               ; preds = %54, %46
  %57 = phi i32 [ %47, %54 ], [ %52, %46 ]
  %58 = add nuw nsw i64 %48, 2
  %59 = getelementptr inbounds [100 x i32], [100 x i32]* %3, i64 0, i64 %58
  %60 = load i32, i32* %59, align 8, !tbaa !5
  %61 = icmp sgt i32 %57, %60
  br i1 %61, label %145, label %147

62:                                               ; preds = %147, %43
  %63 = phi i32 [ %45, %43 ], [ %148, %147 ]
  %64 = phi i64 [ 0, %43 ], [ %58, %147 ]
  br i1 %42, label %72, label %65

65:                                               ; preds = %62
  %66 = add nuw nsw i64 %64, 1
  %67 = getelementptr inbounds [100 x i32], [100 x i32]* %3, i64 0, i64 %66
  %68 = load i32, i32* %67, align 4, !tbaa !5
  %69 = icmp sgt i32 %63, %68
  br i1 %69, label %70, label %72

70:                                               ; preds = %65
  %71 = getelementptr inbounds [100 x i32], [100 x i32]* %3, i64 0, i64 %64
  store i32 %68, i32* %71, align 4, !tbaa !5
  store i32 %63, i32* %67, align 4, !tbaa !5
  br label %72

72:                                               ; preds = %70, %65, %62
  %73 = add nuw nsw i32 %44, 1
  %74 = icmp eq i32 %73, %34
  br i1 %74, label %75, label %43, !llvm.loop !12

75:                                               ; preds = %72, %33
  %76 = load i32, i32* %2, align 4, !tbaa !5
  %77 = icmp slt i32 %76, 2
  br i1 %77, label %117, label %78

78:                                               ; preds = %75
  %79 = add nsw i32 %76, -1
  %80 = zext i32 %79 to i64
  %81 = and i64 %80, 1
  %82 = icmp eq i32 %79, 1
  %83 = and i64 %80, 4294967294
  %84 = icmp eq i64 %81, 0
  br label %85

85:                                               ; preds = %114, %78
  %86 = phi i32 [ %115, %114 ], [ 0, %78 ]
  %87 = load i32, i32* %11, align 16, !tbaa !5
  br i1 %82, label %104, label %88

88:                                               ; preds = %85, %153
  %89 = phi i32 [ %154, %153 ], [ %87, %85 ]
  %90 = phi i64 [ %100, %153 ], [ 0, %85 ]
  %91 = phi i64 [ %155, %153 ], [ %83, %85 ]
  %92 = or i64 %90, 1
  %93 = getelementptr inbounds [100 x i32], [100 x i32]* %4, i64 0, i64 %92
  %94 = load i32, i32* %93, align 4, !tbaa !5
  %95 = icmp sgt i32 %89, %94
  br i1 %95, label %96, label %98

96:                                               ; preds = %88
  %97 = getelementptr inbounds [100 x i32], [100 x i32]* %4, i64 0, i64 %90
  store i32 %94, i32* %97, align 8, !tbaa !5
  store i32 %89, i32* %93, align 4, !tbaa !5
  br label %98

98:                                               ; preds = %96, %88
  %99 = phi i32 [ %89, %96 ], [ %94, %88 ]
  %100 = add nuw nsw i64 %90, 2
  %101 = getelementptr inbounds [100 x i32], [100 x i32]* %4, i64 0, i64 %100
  %102 = load i32, i32* %101, align 8, !tbaa !5
  %103 = icmp sgt i32 %99, %102
  br i1 %103, label %151, label %153

104:                                              ; preds = %153, %85
  %105 = phi i32 [ %87, %85 ], [ %154, %153 ]
  %106 = phi i64 [ 0, %85 ], [ %100, %153 ]
  br i1 %84, label %114, label %107

107:                                              ; preds = %104
  %108 = add nuw nsw i64 %106, 1
  %109 = getelementptr inbounds [100 x i32], [100 x i32]* %4, i64 0, i64 %108
  %110 = load i32, i32* %109, align 4, !tbaa !5
  %111 = icmp sgt i32 %105, %110
  br i1 %111, label %112, label %114

112:                                              ; preds = %107
  %113 = getelementptr inbounds [100 x i32], [100 x i32]* %4, i64 0, i64 %106
  store i32 %110, i32* %113, align 4, !tbaa !5
  store i32 %105, i32* %109, align 4, !tbaa !5
  br label %114

114:                                              ; preds = %112, %107, %104
  %115 = add nuw nsw i32 %86, 1
  %116 = icmp eq i32 %115, %76
  br i1 %116, label %117, label %85, !llvm.loop !12

117:                                              ; preds = %114, %75
  %118 = icmp sgt i32 %34, 0
  br i1 %118, label %119, label %121

119:                                              ; preds = %117
  %120 = zext i32 %34 to i64
  br label %126

121:                                              ; preds = %126, %117
  %122 = add i32 %76, -1
  %123 = icmp sgt i32 %76, 1
  br i1 %123, label %124, label %140

124:                                              ; preds = %121
  %125 = zext i32 %122 to i64
  br label %133

126:                                              ; preds = %126, %119
  %127 = phi i64 [ 0, %119 ], [ %131, %126 ]
  %128 = getelementptr inbounds [100 x i32], [100 x i32]* %3, i64 0, i64 %127
  %129 = load i32, i32* %128, align 4, !tbaa !5
  %130 = call i32 (i8*, ...) @printf(i8* nonnull dereferenceable(1) getelementptr inbounds ([4 x i8], [4 x i8]* @.str.2, i64 0, i64 0), i32 %129) #4
  %131 = add nuw nsw i64 %127, 1
  %132 = icmp eq i64 %131, %120
  br i1 %132, label %121, label %126, !llvm.loop !13

133:                                              ; preds = %133, %124
  %134 = phi i64 [ 0, %124 ], [ %138, %133 ]
  %135 = getelementptr inbounds [100 x i32], [100 x i32]* %4, i64 0, i64 %134
  %136 = load i32, i32* %135, align 4, !tbaa !5
  %137 = call i32 (i8*, ...) @printf(i8* nonnull dereferenceable(1) getelementptr inbounds ([4 x i8], [4 x i8]* @.str.2, i64 0, i64 0), i32 %136) #4
  %138 = add nuw nsw i64 %134, 1
  %139 = icmp eq i64 %138, %125
  br i1 %139, label %140, label %133, !llvm.loop !14

140:                                              ; preds = %133, %121
  %141 = sext i32 %122 to i64
  %142 = getelementptr inbounds [100 x i32], [100 x i32]* %4, i64 0, i64 %141
  %143 = load i32, i32* %142, align 4, !tbaa !5
  %144 = call i32 (i8*, ...) @printf(i8* nonnull dereferenceable(1) getelementptr inbounds ([4 x i8], [4 x i8]* @.str.3, i64 0, i64 0), i32 %143) #4
  call void @llvm.lifetime.end.p0i8(i64 400, i8* nonnull %8) #4
  call void @llvm.lifetime.end.p0i8(i64 400, i8* nonnull %7) #4
  call void @llvm.lifetime.end.p0i8(i64 4, i8* nonnull %6) #4
  call void @llvm.lifetime.end.p0i8(i64 4, i8* nonnull %5) #4
  ret i32 0

145:                                              ; preds = %56
  %146 = getelementptr inbounds [100 x i32], [100 x i32]* %3, i64 0, i64 %50
  store i32 %60, i32* %146, align 4, !tbaa !5
  store i32 %57, i32* %59, align 8, !tbaa !5
  br label %147

147:                                              ; preds = %145, %56
  %148 = phi i32 [ %57, %145 ], [ %60, %56 ]
  %149 = add i64 %49, -2
  %150 = icmp eq i64 %149, 0
  br i1 %150, label %62, label %46, !llvm.loop !15

151:                                              ; preds = %98
  %152 = getelementptr inbounds [100 x i32], [100 x i32]* %4, i64 0, i64 %92
  store i32 %102, i32* %152, align 4, !tbaa !5
  store i32 %99, i32* %101, align 8, !tbaa !5
  br label %153

153:                                              ; preds = %151, %98
  %154 = phi i32 [ %99, %151 ], [ %102, %98 ]
  %155 = add i64 %91, -2
  %156 = icmp eq i64 %155, 0
  br i1 %156, label %104, label %88, !llvm.loop !15
}

; Function Attrs: nofree nounwind sspstrong uwtable
define dso_local void @read(i32* %0, i32* %1, i32 %2, i32 %3) local_unnamed_addr #0 {
  %5 = icmp sgt i32 %2, 0
  br i1 %5, label %6, label %8

6:                                                ; preds = %4
  %7 = zext i32 %2 to i64
  br label %12

8:                                                ; preds = %12, %4
  %9 = icmp sgt i32 %3, 0
  br i1 %9, label %10, label %24

10:                                               ; preds = %8
  %11 = zext i32 %3 to i64
  br label %18

12:                                               ; preds = %6, %12
  %13 = phi i64 [ 0, %6 ], [ %16, %12 ]
  %14 = getelementptr inbounds i32, i32* %0, i64 %13
  %15 = tail call i32 (i8*, ...) @__isoc99_scanf(i8* getelementptr inbounds ([3 x i8], [3 x i8]* @.str.1, i64 0, i64 0), i32* %14)
  %16 = add nuw nsw i64 %13, 1
  %17 = icmp eq i64 %16, %7
  br i1 %17, label %8, label %12, !llvm.loop !9

18:                                               ; preds = %10, %18
  %19 = phi i64 [ 0, %10 ], [ %22, %18 ]
  %20 = getelementptr inbounds i32, i32* %1, i64 %19
  %21 = tail call i32 (i8*, ...) @__isoc99_scanf(i8* getelementptr inbounds ([3 x i8], [3 x i8]* @.str.1, i64 0, i64 0), i32* %20)
  %22 = add nuw nsw i64 %19, 1
  %23 = icmp eq i64 %22, %11
  br i1 %23, label %24, label %18, !llvm.loop !11

24:                                               ; preds = %18, %8
  ret void
}

; Function Attrs: nofree norecurse nosync nounwind sspstrong uwtable
define dso_local void @bubble(i32* nocapture %0, i32 %1) local_unnamed_addr #3 {
  %3 = icmp slt i32 %1, 2
  br i1 %3, label %43, label %4

4:                                                ; preds = %2
  %5 = add nsw i32 %1, -1
  %6 = zext i32 %5 to i64
  %7 = and i64 %6, 1
  %8 = icmp eq i32 %5, 1
  %9 = and i64 %6, 4294967294
  %10 = icmp eq i64 %7, 0
  br label %11

11:                                               ; preds = %4, %40
  %12 = phi i32 [ %41, %40 ], [ 0, %4 ]
  %13 = load i32, i32* %0, align 4, !tbaa !5
  br i1 %8, label %30, label %14

14:                                               ; preds = %11, %46
  %15 = phi i32 [ %47, %46 ], [ %13, %11 ]
  %16 = phi i64 [ %26, %46 ], [ 0, %11 ]
  %17 = phi i64 [ %48, %46 ], [ %9, %11 ]
  %18 = or i64 %16, 1
  %19 = getelementptr inbounds i32, i32* %0, i64 %18
  %20 = load i32, i32* %19, align 4, !tbaa !5
  %21 = icmp sgt i32 %15, %20
  br i1 %21, label %22, label %24

22:                                               ; preds = %14
  %23 = getelementptr inbounds i32, i32* %0, i64 %16
  store i32 %20, i32* %23, align 4, !tbaa !5
  store i32 %15, i32* %19, align 4, !tbaa !5
  br label %24

24:                                               ; preds = %22, %14
  %25 = phi i32 [ %15, %22 ], [ %20, %14 ]
  %26 = add nuw nsw i64 %16, 2
  %27 = getelementptr inbounds i32, i32* %0, i64 %26
  %28 = load i32, i32* %27, align 4, !tbaa !5
  %29 = icmp sgt i32 %25, %28
  br i1 %29, label %44, label %46

30:                                               ; preds = %46, %11
  %31 = phi i32 [ %13, %11 ], [ %47, %46 ]
  %32 = phi i64 [ 0, %11 ], [ %26, %46 ]
  br i1 %10, label %40, label %33

33:                                               ; preds = %30
  %34 = add nuw nsw i64 %32, 1
  %35 = getelementptr inbounds i32, i32* %0, i64 %34
  %36 = load i32, i32* %35, align 4, !tbaa !5
  %37 = icmp sgt i32 %31, %36
  br i1 %37, label %38, label %40

38:                                               ; preds = %33
  %39 = getelementptr inbounds i32, i32* %0, i64 %32
  store i32 %36, i32* %39, align 4, !tbaa !5
  store i32 %31, i32* %35, align 4, !tbaa !5
  br label %40

40:                                               ; preds = %38, %33, %30
  %41 = add nuw nsw i32 %12, 1
  %42 = icmp eq i32 %41, %1
  br i1 %42, label %43, label %11, !llvm.loop !12

43:                                               ; preds = %40, %2
  ret void

44:                                               ; preds = %24
  %45 = getelementptr inbounds i32, i32* %0, i64 %18
  store i32 %28, i32* %45, align 4, !tbaa !5
  store i32 %25, i32* %27, align 4, !tbaa !5
  br label %46

46:                                               ; preds = %44, %24
  %47 = phi i32 [ %25, %44 ], [ %28, %24 ]
  %48 = add i64 %17, -2
  %49 = icmp eq i64 %48, 0
  br i1 %49, label %30, label %14, !llvm.loop !15
}

; Function Attrs: nofree nounwind sspstrong uwtable
define dso_local void @print(i32* nocapture readonly %0, i32* nocapture readonly %1, i32 %2, i32 %3) local_unnamed_addr #0 {
  %5 = icmp sgt i32 %2, 0
  br i1 %5, label %6, label %8

6:                                                ; preds = %4
  %7 = zext i32 %2 to i64
  br label %13

8:                                                ; preds = %13, %4
  %9 = add i32 %3, -1
  %10 = icmp sgt i32 %3, 1
  br i1 %10, label %11, label %27

11:                                               ; preds = %8
  %12 = zext i32 %9 to i64
  br label %20

13:                                               ; preds = %6, %13
  %14 = phi i64 [ 0, %6 ], [ %18, %13 ]
  %15 = getelementptr inbounds i32, i32* %0, i64 %14
  %16 = load i32, i32* %15, align 4, !tbaa !5
  %17 = tail call i32 (i8*, ...) @printf(i8* nonnull dereferenceable(1) getelementptr inbounds ([4 x i8], [4 x i8]* @.str.2, i64 0, i64 0), i32 %16)
  %18 = add nuw nsw i64 %14, 1
  %19 = icmp eq i64 %18, %7
  br i1 %19, label %8, label %13, !llvm.loop !13

20:                                               ; preds = %11, %20
  %21 = phi i64 [ 0, %11 ], [ %25, %20 ]
  %22 = getelementptr inbounds i32, i32* %1, i64 %21
  %23 = load i32, i32* %22, align 4, !tbaa !5
  %24 = tail call i32 (i8*, ...) @printf(i8* nonnull dereferenceable(1) getelementptr inbounds ([4 x i8], [4 x i8]* @.str.2, i64 0, i64 0), i32 %23)
  %25 = add nuw nsw i64 %21, 1
  %26 = icmp eq i64 %25, %12
  br i1 %26, label %27, label %20, !llvm.loop !14

27:                                               ; preds = %20, %8
  %28 = sext i32 %9 to i64
  %29 = getelementptr inbounds i32, i32* %1, i64 %28
  %30 = load i32, i32* %29, align 4, !tbaa !5
  %31 = tail call i32 (i8*, ...) @printf(i8* nonnull dereferenceable(1) getelementptr inbounds ([4 x i8], [4 x i8]* @.str.3, i64 0, i64 0), i32 %30)
  ret void
}